; Function Attrs: mustprogress nounwind uwtable
define noundef range(i64 0, 2) i64 @_ZN5mmu_t15pmp_homogeneousEmm(ptr noundef nonnull readonly align 8 captures(none) dereferenceable(43168) %0, i64 noundef %1, i64 noundef %2) local_unnamed_addr #5 align 2 {
  %4 = or i64 %2, %1
  %5 = add i64 %2, -1
  %6 = and i64 %4, %5
  %.not = icmp eq i64 %6, 0
  br i1 %.not, label %8, label %7

7:                                                ; preds = %3
  tail call void @abort() #26
  unreachable

8:                                                ; preds = %3
  %9 = getelementptr inbounds nuw i8, ptr %0, i64 80
  %10 = load ptr, ptr %9, align 8, !tbaa !39
  %.not12 = icmp eq ptr %10, null
  br i1 %.not12, label %._crit_edge, label %.preheader

.preheader:                                       ; preds = %8
  %11 = getelementptr inbounds nuw i8, ptr %10, i64 266616
  %12 = load i64, ptr %11, align 8, !tbaa !195
  %.not1314 = icmp eq i64 %12, 0
  br i1 %.not1314, label %._crit_edge, label %.lr.ph

13:                                               ; preds = %.lr.ph
  %14 = add nuw i64 %.01015, 1
  %15 = load ptr, ptr %9, align 8, !tbaa !39
  %16 = getelementptr inbounds nuw i8, ptr %15, i64 266616
  %17 = load i64, ptr %16, align 8, !tbaa !195
  %.not13.not = icmp ult i64 %14, %17
  br i1 %.not13.not, label %.lr.ph, label %._crit_edge, !llvm.loop !228

.lr.ph:                                           ; preds = %.preheader, %13
  %18 = phi ptr [ %15, %13 ], [ %10, %.preheader ]
  %.01015 = phi i64 [ %14, %13 ], [ 0, %.preheader ]
  %19 = getelementptr inbounds nuw i8, ptr %18, i64 2440
  %20 = getelementptr inbounds nuw [64 x %"class.std::shared_ptr.78"], ptr %19, i64 0, i64 %.01015
  %21 = load ptr, ptr %20, align 8, !tbaa !196
  %22 = tail call noundef zeroext i1 @_ZNK13pmpaddr_csr_t12subset_matchEmm(ptr noundef nonnull align 8 dereferenceable(64) %21, i64 noundef %1, i64 noundef %2) #27
  br i1 %22, label %._crit_edge, label %13

._crit_edge:                                      ; preds = %.lr.ph, %13, %.preheader, %8
  %.011 = phi i64 [ 1, %8 ], [ 1, %.preheader ], [ 0, %.lr.ph ], [ 1, %13 ]
  ret i64 %.011
}